target datalayout = "e-m:e-p270:32:32-p271:32:32-p272:64:64-i64:64-i128:128-f80:128-n8:16:32:64-S128"
target triple = "x86_64-pc-linux-gnu"

%struct.AV1DecContext = type { ptr, ptr, i32, ptr, %struct.CodedBitstreamFragment, ptr, ptr, ptr, ptr, ptr, ptr, ptr, ptr, ptr, ptr, ptr, %struct.DOVIContext, ptr, i16, i16, i16, i32, [8 x %struct.AV1Frame], %struct.AV1Frame, i32, i32, i32 }
%struct.CodedBitstreamFragment = type { ptr, i64, i64, ptr, i32, i32, ptr }
%struct.DOVIContext = type { ptr, i32, %struct.AVDOVIDecoderConfigurationRecord, %struct.AVDOVIRpuDataHeader, ptr, ptr, ptr, ptr, [16 x ptr], ptr, i32 }
%struct.AVDOVIDecoderConfigurationRecord = type { i8, i8, i8, i8, i8, i8, i8, i8, i8 }
%struct.AVDOVIRpuDataHeader = type { i8, i16, i8, i8, i8, i8, i8, i8, i8, i8, i8, i8, i8, i8, i8, i8, i8 }
%struct.AV1Frame = type { %union.anon.2, ptr, ptr, ptr, i32, i32, [8 x i8], [8 x i8], [8 x [6 x i32]], [2 x i8], %struct.AV1RawFilmGrainParams, i8, i8, [8 x i8], [8 x i8], i8 }
%union.anon.2 = type { %struct.ProgressFrame }
%struct.ProgressFrame = type { ptr, ptr }
%struct.AV1RawFilmGrainParams = type { i8, i16, i8, i8, i8, [14 x i8], [14 x i8], i8, i8, [10 x i8], [10 x i8], i8, [10 x i8], [10 x i8], i8, i8, [24 x i8], [25 x i8], [25 x i8], i8, i8, i8, i8, i16, i8, i8, i16, i8, i8 }
%struct.AV1RawFrameHeader = type { i8, i8, i32, i32, i8, i8, i8, i8, i8, i8, i8, i32, i8, i8, i8, [32 x i32], i8, i16, i16, i8, i8, i8, i16, i16, [7 x i8], i8, i8, [8 x i8], i8, i8, i8, [7 x i8], [7 x i32], i8, i8, i8, i8, i8, i8, i8, i8, i8, [64 x i8], [64 x i8], [64 x i8], [64 x i8], i16, i8, i16, i16, i8, i8, i8, i8, i8, i8, i8, i8, i8, i8, i8, i8, i8, i8, i8, [8 x [8 x i8]], [8 x [8 x i16]], i8, i8, i8, i8, i8, [4 x i8], i8, i8, i8, [8 x i8], [8 x i8], [2 x i8], [2 x i8], i8, i8, [8 x i8], [8 x i8], [8 x i8], [8 x i8], [3 x i8], i8, i8, i8, i8, i8, i8, i8, [8 x i8], [8 x i8], [8 x i8], [8 x [6 x i32]], %struct.AV1RawFilmGrainParams }

; Function Attrs: nounwind uwtable
define internal i32 @inverse_recenter(i32 noundef %0, i32 noundef %1) #1 {
  %3 = alloca i32, align 4
  %4 = alloca i32, align 4
  %5 = alloca i32, align 4
  store i32 %0, ptr %4, align 4, !tbaa !62
  store i32 %1, ptr %5, align 4, !tbaa !62
  %6 = load i32, ptr %5, align 4, !tbaa !62
  %7 = load i32, ptr %4, align 4, !tbaa !62
  %8 = mul nsw i32 2, %7
  %9 = icmp ugt i32 %6, %8
  br i1 %9, label %10, label %12

10:                                               ; preds = %2
  %11 = load i32, ptr %5, align 4, !tbaa !62
  store i32 %11, ptr %3, align 4
  br label %27

12:                                               ; preds = %2
  %13 = load i32, ptr %5, align 4, !tbaa !62
  %14 = and i32 %13, 1
  %15 = icmp ne i32 %14, 0
  br i1 %15, label %16, label %22

16:                                               ; preds = %12
  %17 = load i32, ptr %4, align 4, !tbaa !62
  %18 = load i32, ptr %5, align 4, !tbaa !62
  %19 = add i32 %18, 1
  %20 = lshr i32 %19, 1
  %21 = sub i32 %17, %20
  store i32 %21, ptr %3, align 4
  br label %27

22:                                               ; preds = %12
  %23 = load i32, ptr %4, align 4, !tbaa !62
  %24 = load i32, ptr %5, align 4, !tbaa !62
  %25 = lshr i32 %24, 1
  %26 = add i32 %23, %25
  store i32 %26, ptr %3, align 4
  br label %27

27:                                               ; preds = %22, %16, %10
  %28 = load i32, ptr %3, align 4
  ret i32 %28
}

; Function Attrs: nounwind uwtable
define internal i32 @decode_unsigned_subexp_with_ref(i32 noundef %0, i32 noundef %1, i32 noundef %2) #1 {
  %4 = alloca i32, align 4
  %5 = alloca i32, align 4
  %6 = alloca i32, align 4
  %7 = alloca i32, align 4
  store i32 %0, ptr %5, align 4, !tbaa !62
  store i32 %1, ptr %6, align 4, !tbaa !62
  store i32 %2, ptr %7, align 4, !tbaa !62
  %8 = load i32, ptr %7, align 4, !tbaa !62
  %9 = shl i32 %8, 1
  %10 = load i32, ptr %6, align 4, !tbaa !62
  %11 = icmp sle i32 %9, %10
  br i1 %11, label %12, label %16

12:                                               ; preds = %3
  %13 = load i32, ptr %7, align 4, !tbaa !62
  %14 = load i32, ptr %5, align 4, !tbaa !62
  %15 = call i32 @inverse_recenter(i32 noundef %13, i32 noundef %14)
  store i32 %15, ptr %4, align 4
  br label %26

16:                                               ; preds = %3
  %17 = load i32, ptr %6, align 4, !tbaa !62
  %18 = sub nsw i32 %17, 1
  %19 = load i32, ptr %6, align 4, !tbaa !62
  %20 = sub nsw i32 %19, 1
  %21 = load i32, ptr %7, align 4, !tbaa !62
  %22 = sub nsw i32 %20, %21
  %23 = load i32, ptr %5, align 4, !tbaa !62
  %24 = call i32 @inverse_recenter(i32 noundef %22, i32 noundef %23)
  %25 = sub i32 %18, %24
  store i32 %25, ptr %4, align 4
  br label %26

26:                                               ; preds = %16, %12
  %27 = load i32, ptr %4, align 4
  ret i32 %27
}

; Function Attrs: nounwind uwtable
define internal i32 @decode_signed_subexp_with_ref(i32 noundef %0, i32 noundef %1, i32 noundef %2, i32 noundef %3) #1 {
  %5 = alloca i32, align 4
  %6 = alloca i32, align 4
  %7 = alloca i32, align 4
  %8 = alloca i32, align 4
  %9 = alloca i32, align 4
  store i32 %0, ptr %5, align 4, !tbaa !62
  store i32 %1, ptr %6, align 4, !tbaa !62
  store i32 %2, ptr %7, align 4, !tbaa !62
  store i32 %3, ptr %8, align 4, !tbaa !62
  call void @llvm.lifetime.start.p0(i64 4, ptr %9) #11
  %10 = load i32, ptr %5, align 4, !tbaa !62
  %11 = load i32, ptr %7, align 4, !tbaa !62
  %12 = load i32, ptr %6, align 4, !tbaa !62
  %13 = sub nsw i32 %11, %12
  %14 = load i32, ptr %8, align 4, !tbaa !62
  %15 = load i32, ptr %6, align 4, !tbaa !62
  %16 = sub nsw i32 %14, %15
  %17 = call i32 @decode_unsigned_subexp_with_ref(i32 noundef %10, i32 noundef %13, i32 noundef %16)
  store i32 %17, ptr %9, align 4, !tbaa !62
  %18 = load i32, ptr %9, align 4, !tbaa !62
  %19 = load i32, ptr %6, align 4, !tbaa !62
  %20 = add nsw i32 %18, %19
  call void @llvm.lifetime.end.p0(i64 4, ptr %9) #11
  ret i32 %20
}

; Function Attrs: nounwind uwtable
define internal void @read_global_param(ptr noundef %0, i32 noundef %1, i32 noundef %2, i32 noundef %3) #1 {
  %5 = alloca ptr, align 8
  %6 = alloca i32, align 4
  %7 = alloca i32, align 4
  %8 = alloca i32, align 4
  %9 = alloca i8, align 1
  %10 = alloca i8, align 1
  %11 = alloca i32, align 4
  %12 = alloca i32, align 4
  %13 = alloca i32, align 4
  %14 = alloca i32, align 4
  %15 = alloca i32, align 4
  %16 = alloca i32, align 4
  %17 = alloca i32, align 4
  %18 = alloca i32, align 4
  store ptr %0, ptr %5, align 8, !tbaa !29
  store i32 %1, ptr %6, align 4, !tbaa !62
  store i32 %2, ptr %7, align 4, !tbaa !62
  store i32 %3, ptr %8, align 4, !tbaa !62
  call void @llvm.lifetime.start.p0(i64 1, ptr %9) #11
  call void @llvm.lifetime.start.p0(i64 1, ptr %10) #11
  call void @llvm.lifetime.start.p0(i64 4, ptr %11) #11
  call void @llvm.lifetime.start.p0(i64 4, ptr %12) #11
  call void @llvm.lifetime.start.p0(i64 4, ptr %13) #11
  call void @llvm.lifetime.start.p0(i64 4, ptr %14) #11
  call void @llvm.lifetime.start.p0(i64 4, ptr %15) #11
  call void @llvm.lifetime.start.p0(i64 4, ptr %16) #11
  call void @llvm.lifetime.start.p0(i64 4, ptr %17) #11
  call void @llvm.lifetime.start.p0(i64 4, ptr %18) #11
  %19 = load ptr, ptr %5, align 8, !tbaa !29
  %20 = getelementptr inbounds nuw %struct.AV1DecContext, ptr %19, i32 0, i32 10
  %21 = load ptr, ptr %20, align 8, !tbaa !94
  %22 = getelementptr inbounds nuw %struct.AV1RawFrameHeader, ptr %21, i32 0, i32 16
  %23 = load i8, ptr %22, align 4, !tbaa !354
  store i8 %23, ptr %9, align 1, !tbaa !83
  %24 = load ptr, ptr %5, align 8, !tbaa !29
  %25 = getelementptr inbounds nuw %struct.AV1DecContext, ptr %24, i32 0, i32 10
  %26 = load ptr, ptr %25, align 8, !tbaa !94
  %27 = getelementptr inbounds nuw %struct.AV1RawFrameHeader, ptr %26, i32 0, i32 31
  %28 = load i8, ptr %9, align 1, !tbaa !83
  %29 = zext i8 %28 to i64
  %30 = getelementptr inbounds nuw [7 x i8], ptr %27, i64 0, i64 %29
  %31 = load i8, ptr %30, align 1, !tbaa !83
  store i8 %31, ptr %10, align 1, !tbaa !83
  store i32 12, ptr %11, align 4, !tbaa !62
  store i32 15, ptr %12, align 4, !tbaa !62
  %32 = load ptr, ptr %5, align 8, !tbaa !29
  %33 = getelementptr inbounds nuw %struct.AV1DecContext, ptr %32, i32 0, i32 10
  %34 = load ptr, ptr %33, align 8, !tbaa !94
  %35 = getelementptr inbounds nuw %struct.AV1RawFrameHeader, ptr %34, i32 0, i32 16
  %36 = load i8, ptr %35, align 4, !tbaa !354
  %37 = zext i8 %36 to i32
  %38 = icmp eq i32 %37, 7
  br i1 %38, label %39, label %50

39:                                               ; preds = %4
  %40 = load ptr, ptr %5, align 8, !tbaa !29
  %41 = getelementptr inbounds nuw %struct.AV1DecContext, ptr %40, i32 0, i32 23
  %42 = getelementptr inbounds nuw %struct.AV1Frame, ptr %41, i32 0, i32 8
  %43 = load i32, ptr %7, align 4, !tbaa !62
  %44 = sext i32 %43 to i64
  %45 = getelementptr inbounds [8 x [6 x i32]], ptr %42, i64 0, i64 %44
  %46 = load i32, ptr %8, align 4, !tbaa !62
  %47 = sext i32 %46 to i64
  %48 = getelementptr inbounds [6 x i32], ptr %45, i64 0, i64 %47
  %49 = load i32, ptr %48, align 4, !tbaa !62
  store i32 %49, ptr %18, align 4, !tbaa !62
  br label %64

50:                                               ; preds = %4
  %51 = load ptr, ptr %5, align 8, !tbaa !29
  %52 = getelementptr inbounds nuw %struct.AV1DecContext, ptr %51, i32 0, i32 22
  %53 = load i8, ptr %10, align 1, !tbaa !83
  %54 = zext i8 %53 to i64
  %55 = getelementptr inbounds nuw [8 x %struct.AV1Frame], ptr %52, i64 0, i64 %54
  %56 = getelementptr inbounds nuw %struct.AV1Frame, ptr %55, i32 0, i32 8
  %57 = load i32, ptr %7, align 4, !tbaa !62
  %58 = sext i32 %57 to i64
  %59 = getelementptr inbounds [8 x [6 x i32]], ptr %56, i64 0, i64 %58
  %60 = load i32, ptr %8, align 4, !tbaa !62
  %61 = sext i32 %60 to i64
  %62 = getelementptr inbounds [6 x i32], ptr %59, i64 0, i64 %61
  %63 = load i32, ptr %62, align 4, !tbaa !62
  store i32 %63, ptr %18, align 4, !tbaa !62
  br label %64

64:                                               ; preds = %50, %39
  %65 = load i32, ptr %8, align 4, !tbaa !62
  %66 = icmp slt i32 %65, 2
  br i1 %66, label %67, label %91

67:                                               ; preds = %64
  %68 = load i32, ptr %6, align 4, !tbaa !62
  %69 = icmp eq i32 %68, 1
  br i1 %69, label %70, label %89

70:                                               ; preds = %67
  %71 = load ptr, ptr %5, align 8, !tbaa !29
  %72 = getelementptr inbounds nuw %struct.AV1DecContext, ptr %71, i32 0, i32 10
  %73 = load ptr, ptr %72, align 8, !tbaa !94
  %74 = getelementptr inbounds nuw %struct.AV1RawFrameHeader, ptr %73, i32 0, i32 33
  %75 = load i8, ptr %74, align 4, !tbaa !355
  %76 = icmp ne i8 %75, 0
  %77 = xor i1 %76, true
  %78 = zext i1 %77 to i32
  %79 = sub nsw i32 9, %78
  store i32 %79, ptr %11, align 4, !tbaa !62
  %80 = load ptr, ptr %5, align 8, !tbaa !29
  %81 = getelementptr inbounds nuw %struct.AV1DecContext, ptr %80, i32 0, i32 10
  %82 = load ptr, ptr %81, align 8, !tbaa !94
  %83 = getelementptr inbounds nuw %struct.AV1RawFrameHeader, ptr %82, i32 0, i32 33
  %84 = load i8, ptr %83, align 4, !tbaa !355
  %85 = icmp ne i8 %84, 0
  %86 = xor i1 %85, true
  %87 = zext i1 %86 to i32
  %88 = sub nsw i32 3, %87
  store i32 %88, ptr %12, align 4, !tbaa !62
  br label %90

89:                                               ; preds = %67
  store i32 12, ptr %11, align 4, !tbaa !62
  store i32 6, ptr %12, align 4, !tbaa !62
  br label %90

90:                                               ; preds = %89, %70
  br label %91

91:                                               ; preds = %90, %64
  %92 = load i32, ptr %8, align 4, !tbaa !62
  %93 = srem i32 %92, 3
  %94 = icmp eq i32 %93, 2
  %95 = select i1 %94, i32 65536, i32 0
  store i32 %95, ptr %13, align 4, !tbaa !62
  %96 = load i32, ptr %12, align 4, !tbaa !62
  %97 = sub i32 16, %96
  store i32 %97, ptr %14, align 4, !tbaa !62
  %98 = load i32, ptr %8, align 4, !tbaa !62
  %99 = srem i32 %98, 3
  %100 = icmp eq i32 %99, 2
  br i1 %100, label %101, label %104

101:                                              ; preds = %91
  %102 = load i32, ptr %12, align 4, !tbaa !62
  %103 = shl i32 1, %102
  br label %105

104:                                              ; preds = %91
  br label %105

105:                                              ; preds = %104, %101
  %106 = phi i32 [ %103, %101 ], [ 0, %104 ]
  store i32 %106, ptr %15, align 4, !tbaa !62
  %107 = load i32, ptr %11, align 4, !tbaa !62
  %108 = shl i32 1, %107
  store i32 %108, ptr %16, align 4, !tbaa !62
  %109 = load i32, ptr %18, align 4, !tbaa !62
  %110 = load i32, ptr %14, align 4, !tbaa !62
  %111 = ashr i32 %109, %110
  %112 = load i32, ptr %15, align 4, !tbaa !62
  %113 = sub i32 %111, %112
  store i32 %113, ptr %17, align 4, !tbaa !62
  %114 = load ptr, ptr %5, align 8, !tbaa !29
  %115 = getelementptr inbounds nuw %struct.AV1DecContext, ptr %114, i32 0, i32 10
  %116 = load ptr, ptr %115, align 8, !tbaa !94
  %117 = getelementptr inbounds nuw %struct.AV1RawFrameHeader, ptr %116, i32 0, i32 97
  %118 = load i32, ptr %7, align 4, !tbaa !62
  %119 = sext i32 %118 to i64
  %120 = getelementptr inbounds [8 x [6 x i32]], ptr %117, i64 0, i64 %119
  %121 = load i32, ptr %8, align 4, !tbaa !62
  %122 = sext i32 %121 to i64
  %123 = getelementptr inbounds [6 x i32], ptr %120, i64 0, i64 %122
  %124 = load i32, ptr %123, align 4, !tbaa !62
  %125 = load i32, ptr %16, align 4, !tbaa !62
  %126 = sub i32 0, %125
  %127 = load i32, ptr %16, align 4, !tbaa !62
  %128 = add i32 %127, 1
  %129 = load i32, ptr %17, align 4, !tbaa !62
  %130 = call i32 @decode_signed_subexp_with_ref(i32 noundef %124, i32 noundef %126, i32 noundef %128, i32 noundef %129)
  %131 = load i32, ptr %14, align 4, !tbaa !62
  %132 = shl i32 %130, %131
  %133 = load i32, ptr %13, align 4, !tbaa !62
  %134 = add i32 %132, %133
  %135 = load ptr, ptr %5, align 8, !tbaa !29
  %136 = getelementptr inbounds nuw %struct.AV1DecContext, ptr %135, i32 0, i32 23
  %137 = getelementptr inbounds nuw %struct.AV1Frame, ptr %136, i32 0, i32 8
  %138 = load i32, ptr %7, align 4, !tbaa !62
  %139 = sext i32 %138 to i64
  %140 = getelementptr inbounds [8 x [6 x i32]], ptr %137, i64 0, i64 %139
  %141 = load i32, ptr %8, align 4, !tbaa !62
  %142 = sext i32 %141 to i64
  %143 = getelementptr inbounds [6 x i32], ptr %140, i64 0, i64 %142
  store i32 %134, ptr %143, align 4, !tbaa !62
  call void @llvm.lifetime.end.p0(i64 4, ptr %18) #11
  call void @llvm.lifetime.end.p0(i64 4, ptr %17) #11
  call void @llvm.lifetime.end.p0(i64 4, ptr %16) #11
  call void @llvm.lifetime.end.p0(i64 4, ptr %15) #11
  call void @llvm.lifetime.end.p0(i64 4, ptr %14) #11
  call void @llvm.lifetime.end.p0(i64 4, ptr %13) #11
  call void @llvm.lifetime.end.p0(i64 4, ptr %12) #11
  call void @llvm.lifetime.end.p0(i64 4, ptr %11) #11
  call void @llvm.lifetime.end.p0(i64 1, ptr %10) #11
  call void @llvm.lifetime.end.p0(i64 1, ptr %9) #11
  ret void
}