; Function Attrs: mustprogress nofree norecurse nosync nounwind willreturn memory(read, argmem: readwrite, inaccessiblemem: none) uwtable
define internal fastcc void @read_global_param(ptr noundef captures(none) %0, i32 noundef range(i32 1, 4) %1, i32 noundef range(i32 -2147483648, 8) %2, i32 noundef range(i32 0, 6) %3) unnamed_addr #7 {
  %5 = getelementptr inbounds nuw i8, ptr %0, i64 120
  %6 = load ptr, ptr %5, align 8, !tbaa !101
  %7 = getelementptr inbounds nuw i8, ptr %6, i64 156
  %8 = load i8, ptr %7, align 4, !tbaa !139
  %9 = icmp eq i8 %8, 7
  br i1 %9, label %10, label %12

10:                                               ; preds = %4
  %11 = getelementptr inbounds nuw i8, ptr %0, i64 4064
  br label %20

12:                                               ; preds = %4
  %13 = getelementptr inbounds nuw i8, ptr %6, i64 190
  %14 = zext i8 %8 to i64
  %15 = getelementptr inbounds nuw [7 x i8], ptr %13, i64 0, i64 %14
  %16 = load i8, ptr %15, align 1, !tbaa !77
  %17 = zext i8 %16 to i64
  %.idx = mul nuw nsw i64 %17, 448
  %18 = getelementptr i8, ptr %0, i64 480
  %19 = getelementptr i8, ptr %18, i64 %.idx
  br label %20

20:                                               ; preds = %12, %10
  %.sink = phi ptr [ %19, %12 ], [ %11, %10 ]
  %21 = sext i32 %2 to i64
  %22 = zext nneg i32 %3 to i64
  %23 = getelementptr inbounds [8 x [6 x i32]], ptr %.sink, i64 0, i64 %21, i64 %22
  %.0 = load i32, ptr %23, align 4, !tbaa !121
  %24 = icmp samesign ult i32 %3, 2
  br i1 %24, label %25, label %32

25:                                               ; preds = %20
  %26 = icmp eq i32 %1, 1
  br i1 %26, label %27, label %32

27:                                               ; preds = %25
  %28 = getelementptr inbounds nuw i8, ptr %6, i64 228
  %29 = load i8, ptr %28, align 4, !tbaa !314
  %.not = icmp eq i8 %29, 0
  %30 = select i1 %.not, i32 8, i32 9
  %31 = select i1 %.not, i32 2, i32 3
  br label %32

32:                                               ; preds = %25, %27, %20
  %.034 = phi i32 [ %31, %27 ], [ 15, %20 ], [ 6, %25 ]
  %.033 = phi i32 [ %30, %27 ], [ 12, %20 ], [ 12, %25 ]
  %.urem = add nsw i32 %3, -3
  %.cmp = icmp samesign ult i32 %3, 3
  %33 = select i1 %.cmp, i32 %3, i32 %.urem
  %34 = icmp eq i32 %33, 2
  %35 = sub nuw nsw i32 16, %.034
  %.neg = shl nsw i32 -1, %.034
  %.neg35 = select i1 %34, i32 %.neg, i32 0
  %36 = shl nuw nsw i32 1, %.033
  %37 = ashr i32 %.0, %35
  %38 = add nsw i32 %.neg35, %37
  %39 = getelementptr inbounds nuw i8, ptr %6, i64 812
  %40 = sext i32 %2 to i64
  %41 = zext nneg i32 %3 to i64
  %42 = getelementptr inbounds [8 x [6 x i32]], ptr %39, i64 0, i64 %40, i64 %41
  %43 = load i32, ptr %42, align 4, !tbaa !121
  %44 = or disjoint i32 %36, 1
  %45 = add nuw nsw i32 %44, %36
  %46 = add nsw i32 %38, %36
  %47 = shl i32 %46, 1
  %.not.i.i = icmp sgt i32 %47, %45
  br i1 %.not.i.i, label %59, label %48

48:                                               ; preds = %32
  %49 = icmp ugt i32 %43, %47
  br i1 %49, label %decode_signed_subexp_with_ref.exit, label %50

50:                                               ; preds = %48
  %51 = and i32 %43, 1
  %.not.i.i.i = icmp eq i32 %51, 0
  br i1 %.not.i.i.i, label %56, label %52

52:                                               ; preds = %50
  %53 = add i32 %43, 1
  %54 = lshr exact i32 %53, 1
  %55 = sub i32 %46, %54
  br label %decode_signed_subexp_with_ref.exit

56:                                               ; preds = %50
  %57 = lshr exact i32 %43, 1
  %58 = add i32 %46, %57
  br label %decode_signed_subexp_with_ref.exit

59:                                               ; preds = %32
  %60 = add nsw i32 %45, -1
  %61 = sub nsw i32 %60, %46
  %62 = shl nsw i32 %61, 1
  %63 = icmp ugt i32 %43, %62
  br i1 %63, label %inverse_recenter.exit12.i.i, label %64

64:                                               ; preds = %59
  %65 = and i32 %43, 1
  %.not.i10.i.i = icmp eq i32 %65, 0
  br i1 %.not.i10.i.i, label %70, label %66

66:                                               ; preds = %64
  %67 = add i32 %43, 1
  %68 = lshr exact i32 %67, 1
  %69 = sub i32 %61, %68
  br label %inverse_recenter.exit12.i.i

70:                                               ; preds = %64
  %71 = lshr exact i32 %43, 1
  %72 = add i32 %61, %71
  br label %inverse_recenter.exit12.i.i

inverse_recenter.exit12.i.i:                      ; preds = %70, %66, %59
  %.0.i11.i.i = phi i32 [ %69, %66 ], [ %72, %70 ], [ %43, %59 ]
  %73 = sub i32 %60, %.0.i11.i.i
  br label %decode_signed_subexp_with_ref.exit

decode_signed_subexp_with_ref.exit:               ; preds = %48, %52, %56, %inverse_recenter.exit12.i.i
  %.0.i.i = phi i32 [ %73, %inverse_recenter.exit12.i.i ], [ %55, %52 ], [ %58, %56 ], [ %43, %48 ]
  %74 = select i1 %34, i32 65536, i32 0
  %75 = sub nsw i32 %.0.i.i, %36
  %76 = shl i32 %75, %35
  %77 = add i32 %76, %74
  %78 = getelementptr inbounds nuw i8, ptr %0, i64 4064
  %79 = getelementptr inbounds [8 x [6 x i32]], ptr %78, i64 0, i64 %40, i64 %41
  store i32 %77, ptr %79, align 4, !tbaa !121
  ret void
}